target datalayout = "e-m:e-p270:32:32-p271:32:32-p272:64:64-i64:64-i128:128-f80:128-n8:16:32:64-S128"
target triple = "x86_64-unknown-linux-gnu"

%struct.UText = type { i32, i32, i32, i32, i64, i32, i32, i64, i32, i32, ptr, ptr, ptr, ptr, ptr, ptr, ptr, ptr, i64, i32, i32, i64, i32, i32 }
%struct.UTextFuncs = type { i32, i32, i32, i32, ptr, ptr, ptr, ptr, ptr, ptr, ptr, ptr, ptr, ptr, ptr, ptr }

; Function Attrs: mustprogress uwtable
define i32 @utext_next32_75(ptr noundef %ut) #0 {
entry:
  %retval = alloca i32, align 4
  %ut.addr = alloca ptr, align 8
  %c = alloca i32, align 4
  %trail = alloca i32, align 4
  %supplementary = alloca i32, align 4
  store ptr %ut, ptr %ut.addr, align 8
  %0 = load ptr, ptr %ut.addr, align 8
  %chunkOffset = getelementptr inbounds %struct.UText, ptr %0, i32 0, i32 8
  %1 = load i32, ptr %chunkOffset, align 8
  %2 = load ptr, ptr %ut.addr, align 8
  %chunkLength = getelementptr inbounds %struct.UText, ptr %2, i32 0, i32 9
  %3 = load i32, ptr %chunkLength, align 4
  %cmp = icmp sge i32 %1, %3
  br i1 %cmp, label %if.then, label %if.end3

if.then:                                          ; preds = %entry
  %4 = load ptr, ptr %ut.addr, align 8
  %pFuncs = getelementptr inbounds %struct.UText, ptr %4, i32 0, i32 11
  %5 = load ptr, ptr %pFuncs, align 8
  %access = getelementptr inbounds %struct.UTextFuncs, ptr %5, i32 0, i32 6
  %6 = load ptr, ptr %access, align 8
  %7 = load ptr, ptr %ut.addr, align 8
  %8 = load ptr, ptr %ut.addr, align 8
  %chunkNativeLimit = getelementptr inbounds %struct.UText, ptr %8, i32 0, i32 4
  %9 = load i64, ptr %chunkNativeLimit, align 8
  %call = call noundef signext i8 %6(ptr noundef %7, i64 noundef %9, i8 noundef signext 1)
  %conv = sext i8 %call to i32
  %cmp1 = icmp eq i32 %conv, 0
  br i1 %cmp1, label %if.then2, label %if.end

if.then2:                                         ; preds = %if.then
  store i32 -1, ptr %retval, align 4
  br label %return

if.end:                                           ; preds = %if.then
  br label %if.end3

if.end3:                                          ; preds = %if.end, %entry
  %10 = load ptr, ptr %ut.addr, align 8
  %chunkContents = getelementptr inbounds %struct.UText, ptr %10, i32 0, i32 10
  %11 = load ptr, ptr %chunkContents, align 8
  %12 = load ptr, ptr %ut.addr, align 8
  %chunkOffset4 = getelementptr inbounds %struct.UText, ptr %12, i32 0, i32 8
  %13 = load i32, ptr %chunkOffset4, align 8
  %inc = add nsw i32 %13, 1
  store i32 %inc, ptr %chunkOffset4, align 8
  %idxprom = sext i32 %13 to i64
  %arrayidx = getelementptr inbounds i16, ptr %11, i64 %idxprom
  %14 = load i16, ptr %arrayidx, align 2
  %conv5 = zext i16 %14 to i32
  store i32 %conv5, ptr %c, align 4
  %15 = load i32, ptr %c, align 4
  %and = and i32 %15, -1024
  %cmp6 = icmp eq i32 %and, 55296
  %conv7 = zext i1 %cmp6 to i32
  %cmp8 = icmp eq i32 %conv7, 0
  br i1 %cmp8, label %if.then9, label %if.end10

if.then9:                                         ; preds = %if.end3
  %16 = load i32, ptr %c, align 4
  store i32 %16, ptr %retval, align 4
  br label %return

if.end10:                                         ; preds = %if.end3
  %17 = load ptr, ptr %ut.addr, align 8
  %chunkOffset11 = getelementptr inbounds %struct.UText, ptr %17, i32 0, i32 8
  %18 = load i32, ptr %chunkOffset11, align 8
  %19 = load ptr, ptr %ut.addr, align 8
  %chunkLength12 = getelementptr inbounds %struct.UText, ptr %19, i32 0, i32 9
  %20 = load i32, ptr %chunkLength12, align 4
  %cmp13 = icmp sge i32 %18, %20
  br i1 %cmp13, label %if.then14, label %if.end23

if.then14:                                        ; preds = %if.end10
  %21 = load ptr, ptr %ut.addr, align 8
  %pFuncs15 = getelementptr inbounds %struct.UText, ptr %21, i32 0, i32 11
  %22 = load ptr, ptr %pFuncs15, align 8
  %access16 = getelementptr inbounds %struct.UTextFuncs, ptr %22, i32 0, i32 6
  %23 = load ptr, ptr %access16, align 8
  %24 = load ptr, ptr %ut.addr, align 8
  %25 = load ptr, ptr %ut.addr, align 8
  %chunkNativeLimit17 = getelementptr inbounds %struct.UText, ptr %25, i32 0, i32 4
  %26 = load i64, ptr %chunkNativeLimit17, align 8
  %call18 = call noundef signext i8 %23(ptr noundef %24, i64 noundef %26, i8 noundef signext 1)
  %conv19 = sext i8 %call18 to i32
  %cmp20 = icmp eq i32 %conv19, 0
  br i1 %cmp20, label %if.then21, label %if.end22

if.then21:                                        ; preds = %if.then14
  %27 = load i32, ptr %c, align 4
  store i32 %27, ptr %retval, align 4
  br label %return

if.end22:                                         ; preds = %if.then14
  br label %if.end23

if.end23:                                         ; preds = %if.end22, %if.end10
  %28 = load ptr, ptr %ut.addr, align 8
  %chunkContents24 = getelementptr inbounds %struct.UText, ptr %28, i32 0, i32 10
  %29 = load ptr, ptr %chunkContents24, align 8
  %30 = load ptr, ptr %ut.addr, align 8
  %chunkOffset25 = getelementptr inbounds %struct.UText, ptr %30, i32 0, i32 8
  %31 = load i32, ptr %chunkOffset25, align 8
  %idxprom26 = sext i32 %31 to i64
  %arrayidx27 = getelementptr inbounds i16, ptr %29, i64 %idxprom26
  %32 = load i16, ptr %arrayidx27, align 2
  %conv28 = zext i16 %32 to i32
  store i32 %conv28, ptr %trail, align 4
  %33 = load i32, ptr %trail, align 4
  %and29 = and i32 %33, -1024
  %cmp30 = icmp eq i32 %and29, 56320
  %conv31 = zext i1 %cmp30 to i32
  %cmp32 = icmp eq i32 %conv31, 0
  br i1 %cmp32, label %if.then33, label %if.end34

if.then33:                                        ; preds = %if.end23
  %34 = load i32, ptr %c, align 4
  store i32 %34, ptr %retval, align 4
  br label %return

if.end34:                                         ; preds = %if.end23
  %35 = load i32, ptr %c, align 4
  %shl = shl i32 %35, 10
  %36 = load i32, ptr %trail, align 4
  %add = add nsw i32 %shl, %36
  %sub = sub nsw i32 %add, 56613888
  store i32 %sub, ptr %supplementary, align 4
  %37 = load ptr, ptr %ut.addr, align 8
  %chunkOffset35 = getelementptr inbounds %struct.UText, ptr %37, i32 0, i32 8
  %38 = load i32, ptr %chunkOffset35, align 8
  %inc36 = add nsw i32 %38, 1
  store i32 %inc36, ptr %chunkOffset35, align 8
  %39 = load i32, ptr %supplementary, align 4
  store i32 %39, ptr %retval, align 4
  br label %return

return:                                           ; preds = %if.end34, %if.then33, %if.then21, %if.then9, %if.then2
  %40 = load i32, ptr %retval, align 4
  ret i32 %40
}