; Function Attrs: mustprogress uwtable
define i32 @utext_next32_75(ptr noundef %ut) local_unnamed_addr #0 {
entry:
  %chunkOffset = getelementptr inbounds i8, ptr %ut, i64 40
  %0 = load i32, ptr %chunkOffset, align 8
  %chunkLength = getelementptr inbounds i8, ptr %ut, i64 44
  %1 = load i32, ptr %chunkLength, align 4
  %cmp.not = icmp slt i32 %0, %1
  br i1 %cmp.not, label %if.end3, label %if.then

if.then:                                          ; preds = %entry
  %pFuncs = getelementptr inbounds i8, ptr %ut, i64 56
  %2 = load ptr, ptr %pFuncs, align 8
  %access = getelementptr inbounds i8, ptr %2, i64 32
  %3 = load ptr, ptr %access, align 8
  %chunkNativeLimit = getelementptr inbounds i8, ptr %ut, i64 16
  %4 = load i64, ptr %chunkNativeLimit, align 8
  %call = tail call noundef signext i8 %3(ptr noundef nonnull %ut, i64 noundef %4, i8 noundef signext 1)
  %cmp1 = icmp eq i8 %call, 0
  br i1 %cmp1, label %return, label %if.then.if.end3_crit_edge

if.then.if.end3_crit_edge:                        ; preds = %if.then
  %.pre = load i32, ptr %chunkOffset, align 8
  br label %if.end3

if.end3:                                          ; preds = %if.then.if.end3_crit_edge, %entry
  %5 = phi i32 [ %.pre, %if.then.if.end3_crit_edge ], [ %0, %entry ]
  %chunkContents = getelementptr inbounds i8, ptr %ut, i64 48
  %6 = load ptr, ptr %chunkContents, align 8
  %inc = add nsw i32 %5, 1
  store i32 %inc, ptr %chunkOffset, align 8
  %idxprom = sext i32 %5 to i64
  %arrayidx = getelementptr inbounds i16, ptr %6, i64 %idxprom
  %7 = load i16, ptr %arrayidx, align 2
  %conv5 = zext i16 %7 to i32
  %and = and i32 %conv5, 64512
  %cmp6.not = icmp eq i32 %and, 55296
  br i1 %cmp6.not, label %if.end10, label %return

if.end10:                                         ; preds = %if.end3
  %8 = load i32, ptr %chunkLength, align 4
  %cmp13.not = icmp slt i32 %inc, %8
  br i1 %cmp13.not, label %if.end23, label %if.then14

if.then14:                                        ; preds = %if.end10
  %pFuncs15 = getelementptr inbounds i8, ptr %ut, i64 56
  %9 = load ptr, ptr %pFuncs15, align 8
  %access16 = getelementptr inbounds i8, ptr %9, i64 32
  %10 = load ptr, ptr %access16, align 8
  %chunkNativeLimit17 = getelementptr inbounds i8, ptr %ut, i64 16
  %11 = load i64, ptr %chunkNativeLimit17, align 8
  %call18 = tail call noundef signext i8 %10(ptr noundef nonnull %ut, i64 noundef %11, i8 noundef signext 1)
  %cmp20 = icmp eq i8 %call18, 0
  br i1 %cmp20, label %return, label %if.then14.if.end23_crit_edge

if.then14.if.end23_crit_edge:                     ; preds = %if.then14
  %.pre20 = load ptr, ptr %chunkContents, align 8
  %.pre21 = load i32, ptr %chunkOffset, align 8
  br label %if.end23

if.end23:                                         ; preds = %if.then14.if.end23_crit_edge, %if.end10
  %12 = phi i32 [ %.pre21, %if.then14.if.end23_crit_edge ], [ %inc, %if.end10 ]
  %13 = phi ptr [ %.pre20, %if.then14.if.end23_crit_edge ], [ %6, %if.end10 ]
  %idxprom26 = sext i32 %12 to i64
  %arrayidx27 = getelementptr inbounds i16, ptr %13, i64 %idxprom26
  %14 = load i16, ptr %arrayidx27, align 2
  %conv28 = zext i16 %14 to i32
  %and29 = and i32 %conv28, 64512
  %cmp30.not = icmp eq i32 %and29, 56320
  br i1 %cmp30.not, label %if.end34, label %return

if.end34:                                         ; preds = %if.end23
  %shl = shl nuw nsw i32 %conv5, 10
  %add = add nsw i32 %shl, -56613888
  %sub = add nuw nsw i32 %add, %conv28
  %inc36 = add nsw i32 %12, 1
  store i32 %inc36, ptr %chunkOffset, align 8
  br label %return

return:                                           ; preds = %if.end23, %if.then14, %if.end3, %if.then, %if.end34
  %retval.0 = phi i32 [ %sub, %if.end34 ], [ -1, %if.then ], [ %conv5, %if.end3 ], [ %conv5, %if.then14 ], [ %conv5, %if.end23 ]
  ret i32 %retval.0
}